target datalayout = "e-m:e-p270:32:32-p271:32:32-p272:64:64-i64:64-i128:128-f80:128-n8:16:32:64-S128"
target triple = "x86_64-pc-linux-gnu"

%"class.facebook::yoga::Config" = type { ptr, ptr, i8, i32, %"class.std::bitset", i32, float, ptr }
%"class.std::bitset" = type { %"struct.std::_Base_bitset" }
%"struct.std::_Base_bitset" = type { i64 }

; Function Attrs: mustprogress nounwind uwtable
define linkonce_odr hidden noundef i32 @_ZN8facebook4yogaanENS0_6ErrataES1_(i32 noundef %0, i32 noundef %1) #1 comdat {
  %3 = alloca i32, align 4
  %4 = alloca i32, align 4
  store i32 %0, ptr %3, align 4, !tbaa !28
  store i32 %1, ptr %4, align 4, !tbaa !28
  %5 = load i32, ptr %3, align 4, !tbaa !28
  %6 = load i32, ptr %4, align 4, !tbaa !28
  %7 = and i32 %5, %6
  ret i32 %7
}

; Function Attrs: inlinehint mustprogress nounwind uwtable
define linkonce_odr hidden noundef nonnull align 4 dereferenceable(4) ptr @_ZN8facebook4yogaoRERNS0_6ErrataES1_(ptr noundef nonnull align 4 dereferenceable(4) %0, i32 noundef %1) #4 comdat {
  %3 = alloca ptr, align 8
  %4 = alloca i32, align 4
  store ptr %0, ptr %3, align 8, !tbaa !29
  store i32 %1, ptr %4, align 4, !tbaa !28
  %5 = load i32, ptr %4, align 4, !tbaa !28
  %6 = load ptr, ptr %3, align 8, !tbaa !29
  %7 = load i32, ptr %6, align 4, !tbaa !30
  %8 = or i32 %7, %5
  store i32 %8, ptr %6, align 4, !tbaa !30
  ret ptr %6
}

; Function Attrs: mustprogress uwtable
define noundef zeroext i1 @_ZNK8facebook4yoga6Config9hasErrataENS0_6ErrataE(ptr noundef nonnull align 8 dereferenceable(48) %0, i32 noundef %1) #0 align 2 {
  %3 = alloca ptr, align 8
  %4 = alloca i32, align 4
  store ptr %0, ptr %3, align 8, !tbaa !4
  store i32 %1, ptr %4, align 4, !tbaa !28
  %5 = load ptr, ptr %3, align 8
  %6 = getelementptr inbounds nuw %"class.facebook::yoga::Config", ptr %5, i32 0, i32 5
  %7 = load i32, ptr %6, align 8, !tbaa !9
  %8 = load i32, ptr %4, align 4, !tbaa !28
  %9 = call noundef i32 @_ZN8facebook4yogaanENS0_6ErrataES1_(i32 noundef %7, i32 noundef %8)
  %10 = icmp ne i32 %9, 0
  ret i1 %10
}

; Function Attrs: mustprogress uwtable
define void @_ZN8facebook4yoga6Config9addErrataENS0_6ErrataE(ptr noundef nonnull align 8 dereferenceable(48) %0, i32 noundef %1) #0 align 2 {
  %3 = alloca ptr, align 8
  %4 = alloca i32, align 4
  store ptr %0, ptr %3, align 8, !tbaa !4
  store i32 %1, ptr %4, align 4, !tbaa !28
  %5 = load ptr, ptr %3, align 8
  %6 = load i32, ptr %4, align 4, !tbaa !28
  %7 = call noundef zeroext i1 @_ZNK8facebook4yoga6Config9hasErrataENS0_6ErrataE(ptr noundef nonnull align 8 dereferenceable(48) %5, i32 noundef %6)
  br i1 %7, label %15, label %8

8:                                                ; preds = %2
  %9 = load i32, ptr %4, align 4, !tbaa !28
  %10 = getelementptr inbounds nuw %"class.facebook::yoga::Config", ptr %5, i32 0, i32 5
  %11 = call noundef nonnull align 4 dereferenceable(4) ptr @_ZN8facebook4yogaoRERNS0_6ErrataES1_(ptr noundef nonnull align 4 dereferenceable(4) %10, i32 noundef %9)
  %12 = getelementptr inbounds nuw %"class.facebook::yoga::Config", ptr %5, i32 0, i32 3
  %13 = load i32, ptr %12, align 4, !tbaa !26
  %14 = add i32 %13, 1
  store i32 %14, ptr %12, align 4, !tbaa !26
  br label %15

15:                                               ; preds = %8, %2
  ret void
}