; Function Attrs: mustprogress nofree norecurse nosync nounwind willreturn memory(argmem: readwrite) uwtable
define void @_ZN8facebook4yoga6Config9addErrataENS0_6ErrataE(ptr noundef nonnull align 8 captures(none) dereferenceable(48) %0, i32 noundef %1) local_unnamed_addr #1 align 2 {
  %3 = getelementptr inbounds nuw i8, ptr %0, i64 32
  %4 = load i32, ptr %3, align 8, !tbaa !4
  %5 = and i32 %4, %1
  %.not = icmp eq i32 %5, 0
  br i1 %.not, label %6, label %11

6:                                                ; preds = %2
  %7 = or i32 %4, %1
  store i32 %7, ptr %3, align 8, !tbaa !20
  %8 = getelementptr inbounds nuw i8, ptr %0, i64 20
  %9 = load i32, ptr %8, align 4, !tbaa !19
  %10 = add i32 %9, 1
  store i32 %10, ptr %8, align 4, !tbaa !19
  br label %11

11:                                               ; preds = %6, %2
  ret void
}